target datalayout = "e-m:e-p270:32:32-p271:32:32-p272:64:64-i64:64-i128:128-f80:128-n8:16:32:64-S128"
target triple = "x86_64-pc-linux-gnu"

%class.PhaseValues = type { %class.PhaseTransform, i8, ptr, ptr, [137 x ptr], [137 x ptr], [20 x ptr] }
%class.PhaseTransform = type { ptr, %class.Phase }
%class.Phase = type { i32, ptr }
%class.Node = type <{ ptr, ptr, ptr, i32, i32, i32, i32, i32, i32, i32, [4 x i8] }>
%class.Type_Array = type { ptr, i32, ptr }

@_ZN4Type3TOPE = external global ptr, align 8
@_ZN4Type6BOTTOME = external global ptr, align 8

; Function Attrs: mustprogress nounwind uwtable
define linkonce_odr hidden noundef ptr @_ZNK10Type_Array11fast_lookupEj(ptr noundef nonnull align 8 dereferenceable(24) %0, i32 noundef %1) #1 comdat align 2 {
  %3 = alloca ptr, align 8
  %4 = alloca i32, align 4
  store ptr %0, ptr %3, align 8
  store i32 %1, ptr %4, align 4
  %5 = load ptr, ptr %3, align 8
  %6 = getelementptr inbounds %class.Type_Array, ptr %5, i32 0, i32 2
  %7 = load ptr, ptr %6, align 8
  %8 = load i32, ptr %4, align 4
  %9 = zext i32 %8 to i64
  %10 = getelementptr inbounds ptr, ptr %7, i64 %9
  %11 = load ptr, ptr %10, align 8
  ret ptr %11
}

; Function Attrs: mustprogress nounwind uwtable
define linkonce_odr hidden noundef ptr @_ZNK11PhaseValues4typeEPK4Node(ptr noundef nonnull align 8 dereferenceable(2400) %0, ptr noundef %1) #1 comdat align 2 {
  %3 = alloca ptr, align 8
  %4 = alloca ptr, align 8
  %5 = alloca ptr, align 8
  store ptr %0, ptr %3, align 8
  store ptr %1, ptr %4, align 8
  %6 = load ptr, ptr %3, align 8
  %7 = getelementptr inbounds %class.PhaseValues, ptr %6, i32 0, i32 3
  %8 = load ptr, ptr %7, align 8
  %9 = load ptr, ptr %4, align 8
  %10 = getelementptr inbounds %class.Node, ptr %9, i32 0, i32 7
  %11 = load i32, ptr %10, align 8
  %12 = call noundef ptr @_ZNK10Type_Array11fast_lookupEj(ptr noundef nonnull align 8 dereferenceable(24) %8, i32 noundef %11)
  store ptr %12, ptr %5, align 8
  %13 = load ptr, ptr %5, align 8
  ret ptr %13
}

; Function Attrs: mustprogress nounwind uwtable
define linkonce_odr hidden noundef ptr @_ZNK4Node2inEj(ptr noundef nonnull align 8 dereferenceable(52) %0, i32 noundef %1) #1 comdat align 2 {
  %3 = alloca ptr, align 8
  %4 = alloca i32, align 4
  store ptr %0, ptr %3, align 8
  store i32 %1, ptr %4, align 4
  %5 = load ptr, ptr %3, align 8
  %6 = getelementptr inbounds %class.Node, ptr %5, i32 0, i32 1
  %7 = load ptr, ptr %6, align 8
  %8 = load i32, ptr %4, align 4
  %9 = zext i32 %8 to i64
  %10 = getelementptr inbounds ptr, ptr %7, i64 %9
  %11 = load ptr, ptr %10, align 8
  ret ptr %11
}

; Function Attrs: mustprogress nounwind uwtable
define hidden noundef ptr @_ZNK9SubFPNode5ValueEP8PhaseGVN(ptr noundef nonnull align 8 dereferenceable(52) %0, ptr noundef %1) unnamed_addr #1 align 2 {
  %3 = alloca ptr, align 8
  %4 = alloca ptr, align 8
  %5 = alloca ptr, align 8
  %6 = alloca ptr, align 8
  %7 = alloca ptr, align 8
  %8 = alloca ptr, align 8
  %9 = alloca ptr, align 8
  %10 = alloca ptr, align 8
  store ptr %0, ptr %4, align 8
  store ptr %1, ptr %5, align 8
  %11 = load ptr, ptr %4, align 8
  %12 = call noundef ptr @_ZNK4Node2inEj(ptr noundef nonnull align 8 dereferenceable(52) %11, i32 noundef 1)
  store ptr %12, ptr %6, align 8
  %13 = call noundef ptr @_ZNK4Node2inEj(ptr noundef nonnull align 8 dereferenceable(52) %11, i32 noundef 2)
  store ptr %13, ptr %7, align 8
  %14 = load ptr, ptr %6, align 8
  %15 = icmp eq ptr %14, %11
  br i1 %15, label %16, label %18

16:                                               ; preds = %2
  %17 = load ptr, ptr @_ZN4Type3TOPE, align 8
  br label %22

18:                                               ; preds = %2
  %19 = load ptr, ptr %5, align 8
  %20 = load ptr, ptr %6, align 8
  %21 = call noundef ptr @_ZNK11PhaseValues4typeEPK4Node(ptr noundef nonnull align 8 dereferenceable(2400) %19, ptr noundef %20)
  br label %22

22:                                               ; preds = %18, %16
  %23 = phi ptr [ %17, %16 ], [ %21, %18 ]
  store ptr %23, ptr %8, align 8
  %24 = load ptr, ptr %8, align 8
  %25 = load ptr, ptr @_ZN4Type3TOPE, align 8
  %26 = icmp eq ptr %24, %25
  br i1 %26, label %27, label %29

27:                                               ; preds = %22
  %28 = load ptr, ptr @_ZN4Type3TOPE, align 8
  store ptr %28, ptr %3, align 8
  br label %95

29:                                               ; preds = %22
  %30 = load ptr, ptr %7, align 8
  %31 = icmp eq ptr %30, %11
  br i1 %31, label %32, label %34

32:                                               ; preds = %29
  %33 = load ptr, ptr @_ZN4Type3TOPE, align 8
  br label %38

34:                                               ; preds = %29
  %35 = load ptr, ptr %5, align 8
  %36 = load ptr, ptr %7, align 8
  %37 = call noundef ptr @_ZNK11PhaseValues4typeEPK4Node(ptr noundef nonnull align 8 dereferenceable(2400) %35, ptr noundef %36)
  br label %38

38:                                               ; preds = %34, %32
  %39 = phi ptr [ %33, %32 ], [ %37, %34 ]
  store ptr %39, ptr %9, align 8
  %40 = load ptr, ptr %9, align 8
  %41 = load ptr, ptr @_ZN4Type3TOPE, align 8
  %42 = icmp eq ptr %40, %41
  br i1 %42, label %43, label %45

43:                                               ; preds = %38
  %44 = load ptr, ptr @_ZN4Type3TOPE, align 8
  store ptr %44, ptr %3, align 8
  br label %95

45:                                               ; preds = %38
  %46 = load ptr, ptr %8, align 8
  %47 = load ptr, ptr %46, align 8
  %48 = getelementptr inbounds ptr, ptr %47, i64 6
  %49 = load ptr, ptr %48, align 8
  %50 = call noundef zeroext i1 %49(ptr noundef nonnull align 8 dereferenceable(20) %46)
  br i1 %50, label %51, label %66

51:                                               ; preds = %45
  %52 = load ptr, ptr %9, align 8
  %53 = load ptr, ptr %52, align 8
  %54 = getelementptr inbounds ptr, ptr %53, i64 6
  %55 = load ptr, ptr %54, align 8
  %56 = call noundef zeroext i1 %55(ptr noundef nonnull align 8 dereferenceable(20) %52)
  br i1 %56, label %57, label %66

57:                                               ; preds = %51
  %58 = load ptr, ptr %6, align 8
  %59 = load ptr, ptr %7, align 8
  %60 = icmp eq ptr %58, %59
  br i1 %60, label %61, label %66

61:                                               ; preds = %57
  %62 = load ptr, ptr %11, align 8
  %63 = getelementptr inbounds ptr, ptr %62, i64 25
  %64 = load ptr, ptr %63, align 8
  %65 = call noundef ptr %64(ptr noundef nonnull align 8 dereferenceable(52) %11)
  store ptr %65, ptr %3, align 8
  br label %95

66:                                               ; preds = %57, %51, %45
  %67 = load ptr, ptr %11, align 8
  %68 = getelementptr inbounds ptr, ptr %67, i64 5
  %69 = load ptr, ptr %68, align 8
  %70 = call noundef ptr %69(ptr noundef nonnull align 8 dereferenceable(52) %11)
  store ptr %70, ptr %10, align 8
  %71 = load ptr, ptr %8, align 8
  %72 = load ptr, ptr %10, align 8
  %73 = icmp eq ptr %71, %72
  br i1 %73, label %86, label %74

74:                                               ; preds = %66
  %75 = load ptr, ptr %9, align 8
  %76 = load ptr, ptr %10, align 8
  %77 = icmp eq ptr %75, %76
  br i1 %77, label %86, label %78

78:                                               ; preds = %74
  %79 = load ptr, ptr %8, align 8
  %80 = load ptr, ptr @_ZN4Type6BOTTOME, align 8
  %81 = icmp eq ptr %79, %80
  br i1 %81, label %86, label %82

82:                                               ; preds = %78
  %83 = load ptr, ptr %9, align 8
  %84 = load ptr, ptr @_ZN4Type6BOTTOME, align 8
  %85 = icmp eq ptr %83, %84
  br i1 %85, label %86, label %88

86:                                               ; preds = %82, %78, %74, %66
  %87 = load ptr, ptr %10, align 8
  store ptr %87, ptr %3, align 8
  br label %95

88:                                               ; preds = %82
  %89 = load ptr, ptr %8, align 8
  %90 = load ptr, ptr %9, align 8
  %91 = load ptr, ptr %11, align 8
  %92 = getelementptr inbounds ptr, ptr %91, i64 24
  %93 = load ptr, ptr %92, align 8
  %94 = call noundef ptr %93(ptr noundef nonnull align 8 dereferenceable(52) %11, ptr noundef %89, ptr noundef %90)
  store ptr %94, ptr %3, align 8
  br label %95

95:                                               ; preds = %88, %86, %61, %43, %27
  %96 = load ptr, ptr %3, align 8
  ret ptr %96
}