; Function Attrs: mustprogress nounwind uwtable
define hidden noundef ptr @_ZNK9SubFPNode5ValueEP8PhaseGVN(ptr noundef nonnull align 8 dereferenceable(52) %0, ptr nocapture noundef readonly %1) unnamed_addr #0 align 2 {
  %3 = getelementptr inbounds i8, ptr %0, i64 8
  %4 = load ptr, ptr %3, align 8
  %5 = getelementptr inbounds i8, ptr %4, i64 8
  %6 = load ptr, ptr %5, align 8
  %7 = getelementptr inbounds i8, ptr %4, i64 16
  %8 = load ptr, ptr %7, align 8
  %9 = icmp eq ptr %6, %0
  br i1 %9, label %19, label %10

10:                                               ; preds = %2
  %11 = getelementptr inbounds i8, ptr %1, i64 40
  %12 = load ptr, ptr %11, align 8
  %13 = getelementptr inbounds i8, ptr %6, i64 40
  %14 = load i32, ptr %13, align 8
  %15 = getelementptr inbounds i8, ptr %12, i64 16
  %16 = load ptr, ptr %15, align 8
  %17 = zext i32 %14 to i64
  %18 = getelementptr inbounds ptr, ptr %16, i64 %17
  br label %19

19:                                               ; preds = %2, %10
  %.in = phi ptr [ %18, %10 ], [ @_ZN4Type3TOPE, %2 ]
  %20 = load ptr, ptr %.in, align 8
  %21 = load ptr, ptr @_ZN4Type3TOPE, align 8
  %22 = icmp eq ptr %20, %21
  %23 = icmp eq ptr %8, %0
  %or.cond33 = select i1 %22, i1 true, i1 %23
  br i1 %or.cond33, label %.thread, label %24

24:                                               ; preds = %19
  %25 = getelementptr inbounds i8, ptr %1, i64 40
  %26 = load ptr, ptr %25, align 8
  %27 = getelementptr inbounds i8, ptr %8, i64 40
  %28 = load i32, ptr %27, align 8
  %29 = getelementptr inbounds i8, ptr %26, i64 16
  %30 = load ptr, ptr %29, align 8
  %31 = zext i32 %28 to i64
  %32 = getelementptr inbounds ptr, ptr %30, i64 %31
  %33 = load ptr, ptr %32, align 8
  %34 = icmp eq ptr %33, %21
  br i1 %34, label %.thread, label %35

35:                                               ; preds = %24
  %36 = load ptr, ptr %20, align 8
  %37 = getelementptr inbounds i8, ptr %36, i64 48
  %38 = load ptr, ptr %37, align 8
  %39 = tail call noundef zeroext i1 %38(ptr noundef nonnull align 8 dereferenceable(20) %20) #10
  br i1 %39, label %40, label %51

40:                                               ; preds = %35
  %41 = load ptr, ptr %33, align 8
  %42 = getelementptr inbounds i8, ptr %41, i64 48
  %43 = load ptr, ptr %42, align 8
  %44 = tail call noundef zeroext i1 %43(ptr noundef nonnull align 8 dereferenceable(20) %33) #10
  %45 = icmp eq ptr %6, %8
  %or.cond = and i1 %45, %44
  br i1 %or.cond, label %46, label %51

46:                                               ; preds = %40
  %47 = load ptr, ptr %0, align 8
  %48 = getelementptr inbounds i8, ptr %47, i64 200
  %49 = load ptr, ptr %48, align 8
  %50 = tail call noundef ptr %49(ptr noundef nonnull align 8 dereferenceable(52) %0) #10
  br label %.thread

51:                                               ; preds = %40, %35
  %52 = load ptr, ptr %0, align 8
  %53 = getelementptr inbounds i8, ptr %52, i64 40
  %54 = load ptr, ptr %53, align 8
  %55 = tail call noundef ptr %54(ptr noundef nonnull align 8 dereferenceable(52) %0) #10
  %56 = icmp eq ptr %20, %55
  %57 = icmp eq ptr %33, %55
  %or.cond31 = or i1 %56, %57
  br i1 %or.cond31, label %.thread, label %58

58:                                               ; preds = %51
  %59 = load ptr, ptr @_ZN4Type6BOTTOME, align 8
  %60 = icmp eq ptr %20, %59
  %61 = icmp eq ptr %33, %59
  %or.cond32 = or i1 %60, %61
  br i1 %or.cond32, label %.thread, label %62

62:                                               ; preds = %58
  %63 = load ptr, ptr %0, align 8
  %64 = getelementptr inbounds i8, ptr %63, i64 192
  %65 = load ptr, ptr %64, align 8
  %66 = tail call noundef ptr %65(ptr noundef nonnull align 8 dereferenceable(52) %0, ptr noundef nonnull %20, ptr noundef %33) #10
  br label %.thread

.thread:                                          ; preds = %51, %58, %24, %19, %62, %46
  %.0 = phi ptr [ %50, %46 ], [ %66, %62 ], [ %21, %19 ], [ %21, %24 ], [ %55, %58 ], [ %55, %51 ]
  ret ptr %.0
}